; Function Attrs: mustprogress nounwind uwtable
define internal void @_ZN7testing8internal30ValuesInIteratorRangeGeneratorIN12_GLOBAL__N_110TestParamsEED0Ev(ptr noundef nonnull align 8 dereferenceable(32) %this) unnamed_addr #4 align 2 personality ptr @__gxx_personality_v0 {
entry:
  store ptr getelementptr inbounds ({ [6 x ptr] }, ptr @_ZTVN7testing8internal30ValuesInIteratorRangeGeneratorIN12_GLOBAL__N_110TestParamsEEE, i64 0, i32 0, i64 2), ptr %this, align 8
  %container_.i = getelementptr inbounds i8, ptr %this, i64 8
  %container_.val.i = load ptr, ptr %container_.i, align 8
  %tobool.not.i.i.i.i = icmp eq ptr %container_.val.i, null
  br i1 %tobool.not.i.i.i.i, label %_ZN7testing8internal30ValuesInIteratorRangeGeneratorIN12_GLOBAL__N_110TestParamsEED2Ev.exit, label %if.then.i.i.i.i

if.then.i.i.i.i:                                  ; preds = %entry
  tail call void @_ZdlPv(ptr noundef nonnull %container_.val.i) #30
  br label %_ZN7testing8internal30ValuesInIteratorRangeGeneratorIN12_GLOBAL__N_110TestParamsEED2Ev.exit

_ZN7testing8internal30ValuesInIteratorRangeGeneratorIN12_GLOBAL__N_110TestParamsEED2Ev.exit: ; preds = %entry, %if.then.i.i.i.i
  tail call void @_ZdlPv(ptr noundef nonnull %this) #30
  ret void
}